target datalayout = "e-m:e-p270:32:32-p271:32:32-p272:64:64-i64:64-i128:128-f80:128-n8:16:32:64-S128"
target triple = "x86_64-pc-linux-gnu"

%struct._http_info_value_t = type { i32, ptr, i32, ptr, ptr, ptr, ptr, ptr, ptr }

@st_str_requests_by_host = internal global ptr @.str.515, align 8
@st_node_requests_by_host = internal global i32 -1, align 4

; Function Attrs: null_pointer_is_valid sspstrong uwtable
define internal i32 @http_req_stats_tree_packet(ptr noundef %0, ptr noundef %1, ptr noundef %2, ptr noundef %3, i32 noundef %4) #0 {
  %6 = alloca i32, align 4
  %7 = alloca ptr, align 8
  %8 = alloca ptr, align 8
  %9 = alloca ptr, align 8
  %10 = alloca ptr, align 8
  %11 = alloca i32, align 4
  %12 = alloca ptr, align 8
  %13 = alloca i32, align 4
  %14 = alloca i32, align 4
  store ptr %0, ptr %7, align 8
  store ptr %1, ptr %8, align 8
  store ptr %2, ptr %9, align 8
  store ptr %3, ptr %10, align 8
  store i32 %4, ptr %11, align 4
  call void @llvm.lifetime.start.p0(i64 8, ptr %12) #19
  %15 = load ptr, ptr %10, align 8
  store ptr %15, ptr %12, align 8
  call void @llvm.lifetime.start.p0(i64 4, ptr %13) #19
  %16 = load ptr, ptr %12, align 8
  %17 = getelementptr inbounds nuw %struct._http_info_value_t, ptr %16, i32 0, i32 1
  %18 = load ptr, ptr %17, align 8
  %19 = icmp ne ptr %18, null
  br i1 %19, label %20, label %48

20:                                               ; preds = %5
  %21 = load ptr, ptr %7, align 8
  %22 = load ptr, ptr @st_str_requests_by_host, align 8
  %23 = call i32 @stats_tree_manip_node_int(i32 noundef 0, ptr noundef %21, ptr noundef %22, i32 noundef 0, i1 noundef zeroext false, i32 noundef 1)
  %24 = load ptr, ptr %12, align 8
  %25 = getelementptr inbounds nuw %struct._http_info_value_t, ptr %24, i32 0, i32 3
  %26 = load ptr, ptr %25, align 8
  %27 = icmp ne ptr %26, null
  br i1 %27, label %28, label %47

28:                                               ; preds = %20
  %29 = load ptr, ptr %7, align 8
  %30 = load ptr, ptr %12, align 8
  %31 = getelementptr inbounds nuw %struct._http_info_value_t, ptr %30, i32 0, i32 3
  %32 = load ptr, ptr %31, align 8
  %33 = load i32, ptr @st_node_requests_by_host, align 4
  %34 = call i32 @stats_tree_manip_node_int(i32 noundef 0, ptr noundef %29, ptr noundef %32, i32 noundef %33, i1 noundef zeroext true, i32 noundef 1)
  store i32 %34, ptr %13, align 4
  %35 = load ptr, ptr %12, align 8
  %36 = getelementptr inbounds nuw %struct._http_info_value_t, ptr %35, i32 0, i32 4
  %37 = load ptr, ptr %36, align 8
  %38 = icmp ne ptr %37, null
  br i1 %38, label %39, label %46

39:                                               ; preds = %28
  %40 = load ptr, ptr %7, align 8
  %41 = load ptr, ptr %12, align 8
  %42 = getelementptr inbounds nuw %struct._http_info_value_t, ptr %41, i32 0, i32 4
  %43 = load ptr, ptr %42, align 8
  %44 = load i32, ptr %13, align 4
  %45 = call i32 @stats_tree_manip_node_int(i32 noundef 0, ptr noundef %40, ptr noundef %43, i32 noundef %44, i1 noundef zeroext true, i32 noundef 1)
  br label %46

46:                                               ; preds = %39, %28
  br label %47

47:                                               ; preds = %46, %20
  store i32 1, ptr %6, align 4
  store i32 1, ptr %14, align 4
  br label %49

48:                                               ; preds = %5
  store i32 0, ptr %6, align 4
  store i32 1, ptr %14, align 4
  br label %49

49:                                               ; preds = %48, %47
  call void @llvm.lifetime.end.p0(i64 4, ptr %13) #19
  call void @llvm.lifetime.end.p0(i64 8, ptr %12) #19
  %50 = load i32, ptr %6, align 4
  ret i32 %50
}