; Function Attrs: null_pointer_is_valid sspstrong uwtable
define internal range(i32 0, 2) i32 @http_req_stats_tree_packet(ptr noundef %0, ptr readnone captures(none) %1, ptr readnone captures(none) %2, ptr noundef readonly captures(none) %3, i32 %4) #0 {
  %6 = getelementptr inbounds nuw i8, ptr %3, i64 8
  %7 = load ptr, ptr %6, align 8
  %.not = icmp eq ptr %7, null
  br i1 %.not, label %19, label %8

8:                                                ; preds = %5
  %9 = tail call i32 @stats_tree_manip_node_int(i32 noundef 0, ptr noundef %0, ptr noundef nonnull @.str.515, i32 noundef 0, i1 noundef zeroext false, i32 noundef 1)
  %10 = getelementptr inbounds nuw i8, ptr %3, i64 24
  %11 = load ptr, ptr %10, align 8
  %.not12 = icmp eq ptr %11, null
  br i1 %.not12, label %19, label %12

12:                                               ; preds = %8
  %13 = load i32, ptr @st_node_requests_by_host, align 4
  %14 = tail call i32 @stats_tree_manip_node_int(i32 noundef 0, ptr noundef %0, ptr noundef nonnull %11, i32 noundef %13, i1 noundef zeroext true, i32 noundef 1)
  %15 = getelementptr inbounds nuw i8, ptr %3, i64 32
  %16 = load ptr, ptr %15, align 8
  %.not13 = icmp eq ptr %16, null
  br i1 %.not13, label %19, label %17

17:                                               ; preds = %12
  %18 = tail call i32 @stats_tree_manip_node_int(i32 noundef 0, ptr noundef %0, ptr noundef nonnull %16, i32 noundef %14, i1 noundef zeroext true, i32 noundef 1)
  br label %19

19:                                               ; preds = %5, %8, %17, %12
  %.0 = phi i32 [ 1, %12 ], [ 1, %17 ], [ 1, %8 ], [ 0, %5 ]
  ret i32 %.0
}